target datalayout = "e-m:e-p270:32:32-p271:32:32-p272:64:64-i64:64-i128:128-f80:128-n8:16:32:64-S128"
target triple = "x86_64-pc-linux-gnu"

%struct.H5C_class_t = type { i32, ptr, i32, i32, ptr, ptr, ptr, ptr, ptr, ptr, ptr, ptr, ptr, ptr }
%struct.H5HF_indirect_t = type { %struct.H5C_cache_entry_t, i64, ptr, ptr, ptr, i32, i64, i64, i32, i32, i32, i32, ptr, i8, i64, ptr, ptr }
%struct.H5C_cache_entry_t = type { ptr, i64, i64, ptr, i8, ptr, i8, i8, i8, i8, i32, i8, i8, i8, i8, i8, i32, ptr, i32, i32, i32, i32, i32, i8, i8, ptr, ptr, ptr, ptr, ptr, ptr, i8, i32, i8, i64, ptr, i64, i64, i32, i8, i32, i32, i8, ptr, ptr, ptr }
%struct.H5HF_hdr_t = type { %struct.H5C_cache_entry_t, i32, i32, i8, i8, i8, i8, %struct.H5HF_dtable_t, i64, i64, i32, i64, i64, %struct.H5O_pline_t, i64, i32, i64, i64, i64, i64, i64, i64, i64, i64, i64, i64, i64, i32, ptr, i64, i8, i8, i8, ptr, i32, ptr, %struct.H5HF_block_iter_t, ptr, i64, i8, i8, i64, i8, i8, i8, i8 }
%struct.H5HF_dtable_t = type { %struct.H5HF_dtable_cparam_t, i64, i32, i32, i32, i32, i32, i32, i32, i64, ptr, ptr, ptr, ptr }
%struct.H5HF_dtable_cparam_t = type { i32, i64, i64, i32, i32 }
%struct.H5O_pline_t = type { %struct.H5O_shared_t, i32, i64, i64, ptr }
%struct.H5O_shared_t = type { i32, ptr, i32, %union.anon }
%union.anon = type { %struct.H5O_mesg_loc_t }
%struct.H5O_mesg_loc_t = type { i32, i64 }
%struct.H5HF_block_iter_t = type { i8, ptr }

@H5HF_init_g = external global i8, align 1
@H5_libterm_g = external global i8, align 1
@.str.4 = private unnamed_addr constant [104 x i8] c"generated/home/dtcxzyw/WorkSpace/Projects/compilers/llvm-opt-benchmark/bench/hdf5/hdf5/src/H5HFiblock.c\00", align 1
@H5E_HEAP_g = external global i64, align 8
@H5E_CANTUNPROTECT_g = external global i64, align 8
@.str.20 = private unnamed_addr constant [46 x i8] c"unable to release fractal heap indirect block\00", align 1
@H5AC_FHEAP_IBLOCK = external constant [1 x %struct.H5C_class_t], align 16
@__func__.H5HF__man_iblock_unprotect = private unnamed_addr constant [27 x i8] c"H5HF__man_iblock_unprotect\00", align 1

; Function Attrs: nounwind uwtable
define i32 @H5HF__man_iblock_unprotect(ptr noundef %0, i32 noundef %1, i1 noundef zeroext %2) #0 {
  %4 = alloca ptr, align 8
  %5 = alloca i32, align 4
  %6 = alloca i8, align 1
  %7 = alloca i32, align 4
  %8 = alloca i8, align 1
  store ptr %0, ptr %4, align 8, !tbaa !3
  store i32 %1, ptr %5, align 4, !tbaa !8
  %9 = zext i1 %2 to i8
  store i8 %9, ptr %6, align 1, !tbaa !10
  call void @llvm.lifetime.start.p0(i64 4, ptr %7) #7
  store i32 0, ptr %7, align 4, !tbaa !8
  call void @llvm.lifetime.start.p0(i64 1, ptr %8) #7
  store i8 0, ptr %8, align 1, !tbaa !10
  %10 = load i8, ptr @H5HF_init_g, align 1, !tbaa !10, !range !12, !noundef !13
  %11 = trunc i8 %10 to i1
  br i1 %11, label %16, label %12

12:                                               ; preds = %3
  %13 = load i8, ptr @H5_libterm_g, align 1, !tbaa !10, !range !12, !noundef !13
  %14 = trunc i8 %13 to i1
  %15 = xor i1 %14, true
  br label %16

16:                                               ; preds = %12, %3
  %17 = phi i1 [ true, %3 ], [ %15, %12 ]
  %18 = xor i1 %17, true
  %19 = xor i1 %18, true
  %20 = zext i1 %19 to i32
  %21 = sext i32 %20 to i64
  %22 = call i64 @llvm.expect.i64(i64 %21, i64 1)
  %23 = icmp ne i64 %22, 0
  br i1 %23, label %24, label %86

24:                                               ; preds = %16
  %25 = load i8, ptr %6, align 1, !tbaa !10, !range !12, !noundef !13
  %26 = trunc i8 %25 to i1
  br i1 %26, label %27, label %84

27:                                               ; preds = %24
  %28 = load ptr, ptr %4, align 8, !tbaa !3
  %29 = getelementptr inbounds nuw %struct.H5HF_indirect_t, ptr %28, i32 0, i32 14
  %30 = load i64, ptr %29, align 8, !tbaa !46
  %31 = icmp eq i64 %30, 0
  br i1 %31, label %32, label %51

32:                                               ; preds = %27
  %33 = load ptr, ptr %4, align 8, !tbaa !3
  %34 = getelementptr inbounds nuw %struct.H5HF_indirect_t, ptr %33, i32 0, i32 2
  %35 = load ptr, ptr %34, align 8, !tbaa !31
  %36 = getelementptr inbounds nuw %struct.H5HF_hdr_t, ptr %35, i32 0, i32 34
  %37 = load i32, ptr %36, align 8, !tbaa !47
  %38 = icmp eq i32 2, %37
  br i1 %38, label %39, label %44

39:                                               ; preds = %32
  %40 = load ptr, ptr %4, align 8, !tbaa !3
  %41 = getelementptr inbounds nuw %struct.H5HF_indirect_t, ptr %40, i32 0, i32 2
  %42 = load ptr, ptr %41, align 8, !tbaa !31
  %43 = getelementptr inbounds nuw %struct.H5HF_hdr_t, ptr %42, i32 0, i32 33
  store ptr null, ptr %43, align 8, !tbaa !48
  br label %44

44:                                               ; preds = %39, %32
  %45 = load ptr, ptr %4, align 8, !tbaa !3
  %46 = getelementptr inbounds nuw %struct.H5HF_indirect_t, ptr %45, i32 0, i32 2
  %47 = load ptr, ptr %46, align 8, !tbaa !31
  %48 = getelementptr inbounds nuw %struct.H5HF_hdr_t, ptr %47, i32 0, i32 34
  %49 = load i32, ptr %48, align 8, !tbaa !47
  %50 = and i32 %49, -3
  store i32 %50, ptr %48, align 8, !tbaa !47
  br label %51

51:                                               ; preds = %44, %27
  %52 = load ptr, ptr %4, align 8, !tbaa !3
  %53 = getelementptr inbounds nuw %struct.H5HF_indirect_t, ptr %52, i32 0, i32 2
  %54 = load ptr, ptr %53, align 8, !tbaa !31
  %55 = getelementptr inbounds nuw %struct.H5HF_hdr_t, ptr %54, i32 0, i32 28
  %56 = load ptr, ptr %55, align 8, !tbaa !70
  %57 = load ptr, ptr %4, align 8, !tbaa !3
  %58 = getelementptr inbounds nuw %struct.H5HF_indirect_t, ptr %57, i32 0, i32 6
  %59 = load i64, ptr %58, align 8, !tbaa !86
  %60 = load ptr, ptr %4, align 8, !tbaa !3
  %61 = load i32, ptr %5, align 4, !tbaa !8
  %62 = call i32 @H5AC_unprotect(ptr noundef %56, ptr noundef @H5AC_FHEAP_IBLOCK, i64 noundef %59, ptr noundef %60, i32 noundef %61)
  %63 = icmp slt i32 %62, 0
  br i1 %63, label %64, label %83

64:                                               ; preds = %51
  br label %65

65:                                               ; preds = %64
  br label %66

66:                                               ; preds = %65
  br label %67

67:                                               ; preds = %66
  %68 = load i64, ptr @H5E_HEAP_g, align 8, !tbaa !28
  %69 = load i64, ptr @H5E_CANTUNPROTECT_g, align 8, !tbaa !28
  %70 = call i32 (ptr, ptr, i32, i64, i64, ptr, ...) @H5E_printf_stack(ptr noundef @.str.4, ptr noundef @__func__.H5HF__man_iblock_unprotect, i32 noundef 1232, i64 noundef %68, i64 noundef %69, ptr noundef @.str.20)
  br label %71

71:                                               ; preds = %67
  br label %72

72:                                               ; preds = %71
  store i8 1, ptr %8, align 1, !tbaa !10
  %73 = load i8, ptr %8, align 1, !tbaa !10, !range !12, !noundef !13
  %74 = trunc i8 %73 to i1
  %75 = zext i1 %74 to i8
  store i8 %75, ptr %8, align 1, !tbaa !10
  br label %76

76:                                               ; preds = %72
  br label %77

77:                                               ; preds = %76
  br label %78

78:                                               ; preds = %77
  store i32 -1, ptr %7, align 4, !tbaa !8
  br label %85

79:                                               ; No predecessors!
  br label %80

80:                                               ; preds = %79
  br label %81

81:                                               ; preds = %80
  br label %82

82:                                               ; preds = %81
  br label %83

83:                                               ; preds = %82, %51
  br label %84

84:                                               ; preds = %83, %24
  br label %85

85:                                               ; preds = %84, %78
  br label %86

86:                                               ; preds = %85, %16
  %87 = load i32, ptr %7, align 4, !tbaa !8
  call void @llvm.lifetime.end.p0(i64 1, ptr %8) #7
  call void @llvm.lifetime.end.p0(i64 4, ptr %7) #7
  ret i32 %87
}