; Function Attrs: nounwind uwtable
define range(i32 -1, 1) i32 @H5HF__man_iblock_unprotect(ptr noundef %0, i32 noundef %1, i1 noundef zeroext %2) local_unnamed_addr #0 {
  %4 = load i8, ptr @H5HF_init_g, align 1, !tbaa !3, !range !7, !noundef !8
  %5 = trunc nuw i8 %4 to i1
  %6 = load i8, ptr @H5_libterm_g, align 1, !range !7
  %7 = trunc nuw i8 %6 to i1
  %not. = xor i1 %5, true
  %.not = select i1 %not., i1 %7, i1 false
  %.not10 = xor i1 %2, true
  %brmerge = or i1 %.not, %.not10
  br i1 %brmerge, label %32, label %8, !prof !80

8:                                                ; preds = %3
  %9 = getelementptr inbounds nuw i8, ptr %0, i64 336
  %10 = load i64, ptr %9, align 8, !tbaa !45
  %11 = icmp eq i64 %10, 0
  %12 = getelementptr inbounds nuw i8, ptr %0, i64 256
  %13 = load ptr, ptr %12, align 8, !tbaa !29
  br i1 %11, label %14, label %._crit_edge

14:                                               ; preds = %8
  %15 = getelementptr inbounds nuw i8, ptr %13, i64 632
  %16 = load i32, ptr %15, align 8, !tbaa !46
  %17 = icmp eq i32 %16, 2
  br i1 %17, label %18, label %20

18:                                               ; preds = %14
  %19 = getelementptr inbounds nuw i8, ptr %13, i64 624
  store ptr null, ptr %19, align 8, !tbaa !47
  br label %20

20:                                               ; preds = %18, %14
  %21 = and i32 %16, -3
  store i32 %21, ptr %15, align 8, !tbaa !46
  br label %._crit_edge

._crit_edge:                                      ; preds = %8, %20
  %22 = getelementptr inbounds nuw i8, ptr %13, i64 600
  %23 = load ptr, ptr %22, align 8, !tbaa !61
  %24 = getelementptr inbounds nuw i8, ptr %0, i64 288
  %25 = load i64, ptr %24, align 8, !tbaa !68
  %26 = tail call i32 @H5AC_unprotect(ptr noundef %23, ptr noundef nonnull @H5AC_FHEAP_IBLOCK, i64 noundef %25, ptr noundef nonnull %0, i32 noundef %1) #6
  %27 = icmp slt i32 %26, 0
  br i1 %27, label %28, label %32

28:                                               ; preds = %._crit_edge
  %29 = load i64, ptr @H5E_HEAP_g, align 8, !tbaa !48
  %30 = load i64, ptr @H5E_CANTUNPROTECT_g, align 8, !tbaa !48
  %31 = tail call i32 (ptr, ptr, i32, i64, i64, ptr, ...) @H5E_printf_stack(ptr noundef nonnull @.str.4, ptr noundef nonnull @__func__.H5HF__man_iblock_unprotect, i32 noundef 1232, i64 noundef %29, i64 noundef %30, ptr noundef nonnull @.str.20) #6
  br label %32

32:                                               ; preds = %3, %28, %._crit_edge
  %.0 = phi i32 [ -1, %28 ], [ 0, %._crit_edge ], [ 0, %3 ]
  ret i32 %.0
}